; Function Attrs: mustprogress nofree norecurse nosync nounwind null_pointer_is_valid sspstrong willreturn memory(argmem: read) uwtable
define internal range(i32 0, 2) i32 @ros_info_equal_unmatched(ptr noundef readonly captures(none) %0, ptr noundef readonly captures(none) %1) #6 {
  %3 = getelementptr inbounds nuw i8, ptr %0, i64 28
  %4 = load i32, ptr %3, align 4
  %5 = getelementptr inbounds nuw i8, ptr %1, i64 28
  %6 = load i32, ptr %5, align 4
  %7 = icmp eq i32 %4, %6
  %8 = zext i1 %7 to i32
  ret i32 %8
}